; Function Attrs: nounwind uwtable
define dso_local range(i32 0, 2) i32 @WPACKET_start_quic_sub_packet_bound(ptr noundef captures(none) %0, i64 noundef %1) local_unnamed_addr #0 {
  %3 = alloca ptr, align 8
  %4 = icmp ult i64 %1, 64
  br i1 %4, label %select.unfold, label %5

5:                                                ; preds = %2
  %6 = icmp ult i64 %1, 16384
  br i1 %6, label %select.unfold, label %7

7:                                                ; preds = %5
  %8 = icmp ult i64 %1, 1073741824
  br i1 %8, label %select.unfold, label %9

9:                                                ; preds = %7
  %10 = icmp ult i64 %1, 4611686018427387904
  br i1 %10, label %select.unfold, label %ossl_quic_vlint_encode_len.exit

select.unfold:                                    ; preds = %9, %2, %5, %7
  %.0.i.ph = phi i64 [ 4, %7 ], [ 2, %5 ], [ 1, %2 ], [ 8, %9 ]
  call void @llvm.lifetime.start.p0(i64 8, ptr nonnull %3) #12
  %11 = getelementptr inbounds nuw i8, ptr %0, i64 40
  %12 = load ptr, ptr %11, align 8, !tbaa !4
  %.not.i = icmp eq ptr %12, null
  br i1 %.not.i, label %WPACKET_start_sub_packet_len__.exit.thread, label %13, !prof !24

13:                                               ; preds = %select.unfold
  %14 = getelementptr inbounds nuw i8, ptr %0, i64 48
  %15 = load i8, ptr %14, align 8
  %16 = and i8 %15, 1
  %.not21.i = icmp eq i8 %16, 0
  br i1 %.not21.i, label %17, label %WPACKET_start_sub_packet_len__.exit.thread

17:                                               ; preds = %13
  %18 = tail call noalias ptr @CRYPTO_zalloc(i64 noundef 40, ptr noundef nonnull @.str, i32 noundef 379) #12
  %19 = icmp eq ptr %18, null
  br i1 %19, label %WPACKET_start_sub_packet_len__.exit.thread, label %WPACKET_start_sub_packet_len__.exit

WPACKET_start_sub_packet_len__.exit.thread:       ; preds = %select.unfold, %13, %17
  call void @llvm.lifetime.end.p0(i64 8, ptr nonnull %3) #12
  br label %ossl_quic_vlint_encode_len.exit

WPACKET_start_sub_packet_len__.exit:              ; preds = %17
  %20 = load ptr, ptr %11, align 8, !tbaa !4
  store ptr %20, ptr %18, align 8, !tbaa !25
  store ptr %18, ptr %11, align 8, !tbaa !4
  %21 = getelementptr inbounds nuw i8, ptr %0, i64 24
  %22 = load i64, ptr %21, align 8, !tbaa !16
  %23 = add i64 %22, %.0.i.ph
  %24 = getelementptr inbounds nuw i8, ptr %18, i64 24
  store i64 %23, ptr %24, align 8, !tbaa !27
  %25 = getelementptr inbounds nuw i8, ptr %18, i64 16
  store i64 %.0.i.ph, ptr %25, align 8, !tbaa !28
  %26 = getelementptr inbounds nuw i8, ptr %18, i64 8
  store i64 %22, ptr %26, align 8, !tbaa !29
  %27 = call i32 @WPACKET_allocate_bytes(ptr noundef nonnull %0, i64 noundef %.0.i.ph, ptr noundef nonnull %3)
  call void @llvm.lifetime.end.p0(i64 8, ptr nonnull %3) #12
  %28 = icmp eq i32 %27, 0
  br i1 %28, label %ossl_quic_vlint_encode_len.exit, label %29

29:                                               ; preds = %WPACKET_start_sub_packet_len__.exit
  %30 = load ptr, ptr %11, align 8, !tbaa !4
  %31 = getelementptr inbounds nuw i8, ptr %30, i64 32
  %32 = load i32, ptr %31, align 8, !tbaa !30
  %33 = or i32 %32, 4
  store i32 %33, ptr %31, align 8, !tbaa !30
  br label %ossl_quic_vlint_encode_len.exit

ossl_quic_vlint_encode_len.exit:                  ; preds = %WPACKET_start_sub_packet_len__.exit.thread, %9, %WPACKET_start_sub_packet_len__.exit, %29
  %.0 = phi i32 [ 1, %29 ], [ 0, %WPACKET_start_sub_packet_len__.exit ], [ 0, %9 ], [ 0, %WPACKET_start_sub_packet_len__.exit.thread ]
  ret i32 %.0
}